target datalayout = "e-m:e-p270:32:32-p271:32:32-p272:64:64-i64:64-i128:128-f80:128-n8:16:32:64-S128"
target triple = "x86_64-unknown-linux-gnu"

%"class.date::tzdb_list" = type { %"struct.std::atomic" }
%"struct.std::atomic" = type { %"struct.std::__atomic_base" }
%"struct.std::__atomic_base" = type { ptr }

@__dso_handle = external hidden global i8
@_ZZN4date13get_tzdb_listEvE5tz_db = internal global %"class.date::tzdb_list" zeroinitializer, align 8
@_ZGVZN4date13get_tzdb_listEvE5tz_db = internal global i64 0, align 8
@_ZN4date9tzdb_listD1Ev = unnamed_addr alias void (ptr), ptr @_ZN4date9tzdb_listD2Ev

; Function Attrs: mustprogress uwtable
define noundef nonnull align 8 dereferenceable(8) ptr @_ZN4date13get_tzdb_listEv() #7 personality ptr @__gxx_personality_v0 {
entry:
  %exn.slot = alloca ptr, align 8
  %ehselector.slot = alloca i32, align 4
  %0 = load atomic i8, ptr @_ZGVZN4date13get_tzdb_listEvE5tz_db acquire, align 8
  %guard.uninitialized = icmp eq i8 %0, 0
  br i1 %guard.uninitialized, label %init.check, label %init.end, !prof !6

init.check:                                       ; preds = %entry
  %1 = call i32 @__cxa_guard_acquire(ptr @_ZGVZN4date13get_tzdb_listEvE5tz_db) #3
  %tobool = icmp ne i32 %1, 0
  br i1 %tobool, label %init, label %init.end

init:                                             ; preds = %init.check
  invoke void @_ZN4dateL11create_tzdbEv(ptr sret(%"class.date::tzdb_list") align 8 @_ZZN4date13get_tzdb_listEvE5tz_db)
          to label %invoke.cont unwind label %lpad

invoke.cont:                                      ; preds = %init
  %2 = call i32 @__cxa_atexit(ptr @_ZN4date9tzdb_listD1Ev, ptr @_ZZN4date13get_tzdb_listEvE5tz_db, ptr @__dso_handle) #3
  call void @__cxa_guard_release(ptr @_ZGVZN4date13get_tzdb_listEvE5tz_db) #3
  br label %init.end

init.end:                                         ; preds = %invoke.cont, %init.check, %entry
  ret ptr @_ZZN4date13get_tzdb_listEvE5tz_db

lpad:                                             ; preds = %init
  %3 = landingpad { ptr, i32 }
          cleanup
  %4 = extractvalue { ptr, i32 } %3, 0
  store ptr %4, ptr %exn.slot, align 8
  %5 = extractvalue { ptr, i32 } %3, 1
  store i32 %5, ptr %ehselector.slot, align 4
  call void @__cxa_guard_abort(ptr @_ZGVZN4date13get_tzdb_listEvE5tz_db) #3
  br label %eh.resume

eh.resume:                                        ; preds = %lpad
  %exn = load ptr, ptr %exn.slot, align 8
  %sel = load i32, ptr %ehselector.slot, align 4
  %lpad.val = insertvalue { ptr, i32 } poison, ptr %exn, 0
  %lpad.val1 = insertvalue { ptr, i32 } %lpad.val, i32 %sel, 1
  resume { ptr, i32 } %lpad.val1
}